# SymbolsHelper-Confirmed: 1.1.1 amd64
libpackagekitqt6.so.1 libpackagekitqt6-1 #MINVER#
* Build-Depends-Package: libpackagekitqt6-dev
 _ZGVZN9QMetaType21registerConverterImplI5QListI15QDBusObjectPathE9QIterableI13QMetaSequenceEEEbSt8functionIFbPKvPvEES_S_E10unregister@Base 1.1.1
 _ZGVZN9QMetaType21registerConverterImplI5QListIN10PackageKit8PkDetailEE9QIterableI13QMetaSequenceEEEbSt8functionIFbPKvPvEES_S_E10unregister@Base 1.1.1
 _ZGVZN9QMetaType21registerConverterImplI5QListIN10PackageKit9PkPackageEE9QIterableI13QMetaSequenceEEEbSt8functionIFbPKvPvEES_S_E10unregister@Base 1.1.1
 _ZGVZN9QMetaType23registerMutableViewImplI5QListI15QDBusObjectPathE9QIterableI13QMetaSequenceEEEbSt8functionIFbPvS8_EES_S_E10unregister@Base 1.1.1
 _ZGVZN9QMetaType23registerMutableViewImplI5QListIN10PackageKit8PkDetailEE9QIterableI13QMetaSequenceEEEbSt8functionIFbPvS9_EES_S_E10unregister@Base 1.1.1
 _ZGVZN9QMetaType23registerMutableViewImplI5QListIN10PackageKit9PkPackageEE9QIterableI13QMetaSequenceEEEbSt8functionIFbPvS9_EES_S_E10unregister@Base 1.1.1
 _ZN10PackageKit11Transaction10parseErrorERK7QString@Base 1.1.1
 _ZN10PackageKit11Transaction10repoDetailERK7QStringS3_b@Base 1.1.1
 _ZN10PackageKit11Transaction10uidChangedEv@Base 1.1.1
 _ZN10PackageKit11Transaction11packageArchERK7QString@Base 1.1.1
 _ZN10PackageKit11Transaction11packageDataERK7QString@Base 1.1.1
 _ZN10PackageKit11Transaction11packageNameERK7QString@Base 1.1.1
 _ZN10PackageKit11Transaction11qt_metacallEN11QMetaObject4CallEiPPv@Base 1.1.1
 _ZN10PackageKit11Transaction11qt_metacastEPKc@Base 1.1.1
 _ZN10PackageKit11Transaction11roleChangedEv@Base 1.1.1
 _ZN10PackageKit11Transaction11transactionEPS0_@Base 1.1.1
 _ZN10PackageKit11Transaction12eulaRequiredERK7QStringS3_S3_S3_@Base 1.1.1
 _ZN10PackageKit11Transaction12itemProgressERK7QStringNS0_6StatusEj@Base 1.1.1
 _ZN10PackageKit11Transaction12speedChangedEv@Base 1.1.1
 _ZN10PackageKit11Transaction12updateDetailERK7QStringRK5QListIS1_ES7_S7_S7_S7_NS0_7RestartES3_S3_NS0_11UpdateStateERK9QDateTimeSC_@Base 1.1.1
 _ZN10PackageKit11Transaction13connectNotifyERK11QMetaMethod@Base 1.1.1
 _ZN10PackageKit11Transaction13distroUpgradeENS0_13DistroUpgradeERK7QStringS4_@Base 1.1.1
 _ZN10PackageKit11Transaction13statusChangedEv@Base 1.1.1
 _ZN10PackageKit11Transaction14packageVersionERK7QString@Base 1.1.1
 _ZN10PackageKit11Transaction14requireRestartENS0_7RestartERK7QString@Base 1.1.1
 _ZN10PackageKit11Transaction16disconnectNotifyERK11QMetaMethod@Base 1.1.1
 _ZN10PackageKit11Transaction16staticMetaObjectE@Base 1.1.1
 _ZN10PackageKit11Transaction17percentageChangedEv@Base 1.1.1
 _ZN10PackageKit11Transaction17senderNameChangedEv@Base 1.1.1
 _ZN10PackageKit11Transaction18allowCancelChangedEv@Base 1.1.1
 _ZN10PackageKit11Transaction18elapsedTimeChangedEv@Base 1.1.1
 _ZN10PackageKit11Transaction18lastPackageChangedEv@Base 1.1.1
 _ZN10PackageKit11Transaction19mediaChangeRequiredENS0_9MediaTypeERK7QStringS4_@Base 1.1.1
 _ZN10PackageKit11Transaction20remainingTimeChangedEv@Base 1.1.1
 _ZN10PackageKit11Transaction21isCallerActiveChangedEv@Base 1.1.1
 _ZN10PackageKit11Transaction21repoSignatureRequiredERK7QStringS3_S3_S3_S3_S3_S3_NS0_7SigTypeE@Base 1.1.1
 _ZN10PackageKit11Transaction23transactionFlagsChangedEv@Base 1.1.1
 _ZN10PackageKit11Transaction28downloadSizeRemainingChangedEv@Base 1.1.1
 _ZN10PackageKit11Transaction5filesERK7QStringRK5QListIS1_E@Base 1.1.1
 _ZN10PackageKit11Transaction6cancelEv@Base 1.1.1
 _ZN10PackageKit11Transaction7detailsERKNS_7DetailsE@Base 1.1.1
 _ZN10PackageKit11Transaction7packageENS0_4InfoERK7QStringS4_@Base 1.1.1
 _ZN10PackageKit11Transaction8categoryERK7QStringS3_S3_S3_S3_@Base 1.1.1
 _ZN10PackageKit11Transaction8finishedENS0_4ExitEj@Base 1.1.1
 _ZN10PackageKit11Transaction8setHintsERK5QListI7QStringE@Base 1.1.1
 _ZN10PackageKit11Transaction8setHintsERK7QString@Base 1.1.1
 _ZN10PackageKit11Transaction9errorCodeENS0_5ErrorERK7QString@Base 1.1.1
 _ZN10PackageKit11TransactionC1EPNS_18TransactionPrivateE@Base 1.1.1
 _ZN10PackageKit11TransactionC1ERK15QDBusObjectPath@Base 1.1.1
 _ZN10PackageKit11TransactionC1Ev@Base 1.1.1
 _ZN10PackageKit11TransactionC2EPNS_18TransactionPrivateE@Base 1.1.1
 _ZN10PackageKit11TransactionC2ERK15QDBusObjectPath@Base 1.1.1
 _ZN10PackageKit11TransactionC2Ev@Base 1.1.1
 _ZN10PackageKit11TransactionD0Ev@Base 1.1.1
 _ZN10PackageKit11TransactionD1Ev@Base 1.1.1
 _ZN10PackageKit11TransactionD2Ev@Base 1.1.1
 _ZN10PackageKit6Daemon10acceptEulaERK7QString@Base 1.1.1
 _ZN10PackageKit6Daemon10daemonQuitEv@Base 1.1.1
 _ZN10PackageKit6Daemon10getDetailsERK5QListI7QStringE@Base 1.1.1
 _ZN10PackageKit6Daemon10getDetailsERK7QString@Base 1.1.1
 _ZN10PackageKit6Daemon10getUpdatesE6QFlagsINS_11Transaction6FilterEE@Base 1.1.1
 _ZN10PackageKit6Daemon10repoEnableERK7QStringb@Base 1.1.1
 _ZN10PackageKit6Daemon10repoRemoveERK7QStringb6QFlagsINS_11Transaction15TransactionFlagEE@Base 1.1.1
 _ZN10PackageKit6Daemon10requiredByERK5QListI7QStringE6QFlagsINS_11Transaction6FilterEEb@Base 1.1.1
 _ZN10PackageKit6Daemon10requiredByERK7QString6QFlagsINS_11Transaction6FilterEEb@Base 1.1.1
 _ZN10PackageKit6Daemon11backendNameEv@Base 1.1.1
 _ZN10PackageKit6Daemon11getPackagesE6QFlagsINS_11Transaction6FilterEE@Base 1.1.1
 _ZN10PackageKit6Daemon11getRepoListE6QFlagsINS_11Transaction6FilterEE@Base 1.1.1
 _ZN10PackageKit6Daemon11installFileERK7QString6QFlagsINS_11Transaction15TransactionFlagEE@Base 1.1.1
 _ZN10PackageKit6Daemon11packageArchERK7QString@Base 1.1.1
 _ZN10PackageKit6Daemon11packageDataERK7QString@Base 1.1.1
 _ZN10PackageKit6Daemon11packageNameERK7QString@Base 1.1.1
 _ZN10PackageKit6Daemon11qt_metacallEN11QMetaObject4CallEiPPv@Base 1.1.1
 _ZN10PackageKit6Daemon11qt_metacastEPKc@Base 1.1.1
 _ZN10PackageKit6Daemon11repoSetDataERK7QStringS3_S3_@Base 1.1.1
 _ZN10PackageKit6Daemon11searchFilesERK5QListI7QStringE6QFlagsINS_11Transaction6FilterEE@Base 1.1.1
 _ZN10PackageKit6Daemon11searchFilesERK7QString6QFlagsINS_11Transaction6FilterEE@Base 1.1.1
 _ZN10PackageKit6Daemon11searchGroupENS_11Transaction5GroupE6QFlagsINS1_6FilterEE@Base 1.1.1
 _ZN10PackageKit6Daemon11searchGroupERK7QString6QFlagsINS_11Transaction6FilterEE@Base 1.1.1
 _ZN10PackageKit6Daemon11searchNamesERK5QListI7QStringE6QFlagsINS_11Transaction6FilterEE@Base 1.1.1
 _ZN10PackageKit6Daemon11searchNamesERK7QString6QFlagsINS_11Transaction6FilterEE@Base 1.1.1
 _ZN10PackageKit6Daemon12canAuthorizeERK7QString@Base 1.1.1
 _ZN10PackageKit6Daemon12enumToStringERK11QMetaObjectiPKc@Base 1.1.1
 _ZN10PackageKit6Daemon12installFilesERK5QListI7QStringE6QFlagsINS_11Transaction15TransactionFlagEE@Base 1.1.1
 _ZN10PackageKit6Daemon12networkStateEv@Base 1.1.1
 _ZN10PackageKit6Daemon12refreshCacheEb@Base 1.1.1
 _ZN10PackageKit6Daemon12repairSystemE6QFlagsINS_11Transaction15TransactionFlagEE@Base 1.1.1
 _ZN10PackageKit6Daemon12searchGroupsENS_8BitfieldE6QFlagsINS_11Transaction6FilterEE@Base 1.1.1
 _ZN10PackageKit6Daemon12searchGroupsERK5QListI7QStringE6QFlagsINS_11Transaction6FilterEE@Base 1.1.1
 _ZN10PackageKit6Daemon12versionMajorEv@Base 1.1.1
 _ZN10PackageKit6Daemon12versionMicroEv@Base 1.1.1
 _ZN10PackageKit6Daemon12versionMinorEv@Base 1.1.1
 _ZN10PackageKit6Daemon12whatProvidesERK5QListI7QStringE6QFlagsINS_11Transaction6FilterEE@Base 1.1.1
 _ZN10PackageKit6Daemon12whatProvidesERK7QString6QFlagsINS_11Transaction6FilterEE@Base 1.1.1
 _ZN10PackageKit6Daemon13backendAuthorEv@Base 1.1.1
 _ZN10PackageKit6Daemon13connectNotifyERK11QMetaMethod@Base 1.1.1
 _ZN10PackageKit6Daemon13getCategoriesEv@Base 1.1.1
 _ZN10PackageKit6Daemon13getFilesLocalERK5QListI7QStringE@Base 1.1.1
 _ZN10PackageKit6Daemon13getFilesLocalERK7QString@Base 1.1.1
 _ZN10PackageKit6Daemon13removePackageERK7QStringbb6QFlagsINS_11Transaction15TransactionFlagEE@Base 1.1.1
 _ZN10PackageKit6Daemon13searchDetailsERK5QListI7QStringE6QFlagsINS_11Transaction6FilterEE@Base 1.1.1
 _ZN10PackageKit6Daemon13searchDetailsERK7QString6QFlagsINS_11Transaction6FilterEE@Base 1.1.1
 _ZN10PackageKit6Daemon13updatePackageERK7QString6QFlagsINS_11Transaction15TransactionFlagEE@Base 1.1.1
 _ZN10PackageKit6Daemon13upgradeSystemERK7QStringNS_11Transaction11UpgradeKindE6QFlagsINS4_15TransactionFlagEE@Base 1.1.1
 _ZN10PackageKit6Daemon14enumFromStringERK11QMetaObjectRK7QStringPKc@Base 1.1.1
 _ZN10PackageKit6Daemon14installPackageERK7QString6QFlagsINS_11Transaction15TransactionFlagEE@Base 1.1.1
 _ZN10PackageKit6Daemon14packageVersionERK7QString@Base 1.1.1
 _ZN10PackageKit6Daemon14removePackagesERK5QListI7QStringEbb6QFlagsINS_11Transaction15TransactionFlagEE@Base 1.1.1
 _ZN10PackageKit6Daemon14updatePackagesERK5QListI7QStringE6QFlagsINS_11Transaction15TransactionFlagEE@Base 1.1.1
 _ZN10PackageKit6Daemon14updatesChangedEv@Base 1.1.1
 _ZN10PackageKit6Daemon15downloadPackageERK7QStringb@Base 1.1.1
 _ZN10PackageKit6Daemon15getDetailsLocalERK5QListI7QStringE@Base 1.1.1
 _ZN10PackageKit6Daemon15getDetailsLocalERK7QString@Base 1.1.1
 _ZN10PackageKit6Daemon15getUpdateDetailERK7QString@Base 1.1.1
 _ZN10PackageKit6Daemon15installPackagesERK5QListI7QStringE6QFlagsINS_11Transaction15TransactionFlagEE@Base 1.1.1
 _ZN10PackageKit6Daemon15repoListChangedEv@Base 1.1.1
 _ZN10PackageKit6Daemon15stateHasChangedERK7QString@Base 1.1.1
 _ZN10PackageKit6Daemon16disconnectNotifyERK11QMetaMethod@Base 1.1.1
 _ZN10PackageKit6Daemon16downloadPackagesERK5QListI7QStringEb@Base 1.1.1
 _ZN10PackageKit6Daemon16installSignatureENS_11Transaction7SigTypeERK7QStringS5_@Base 1.1.1
 _ZN10PackageKit6Daemon16isRunningChangedEv@Base 1.1.1
 _ZN10PackageKit6Daemon16restartScheduledEv@Base 1.1.1
 _ZN10PackageKit6Daemon16staticMetaObjectE@Base 1.1.1
 _ZN10PackageKit6Daemon17createTransactionEv@Base 1.1.1
 _ZN10PackageKit6Daemon17getDistroUpgradesEv@Base 1.1.1
 _ZN10PackageKit6Daemon17getUpdatesDetailsERK5QListI7QStringE@Base 1.1.1
 _ZN10PackageKit6Daemon17suggestDaemonQuitEv@Base 1.1.1
 _ZN10PackageKit6Daemon18backendDescriptionEv@Base 1.1.1
 _ZN10PackageKit6Daemon18getOldTransactionsEj@Base 1.1.1
 _ZN10PackageKit6Daemon18getTimeSinceActionENS_11Transaction4RoleE@Base 1.1.1
 _ZN10PackageKit6Daemon18getTransactionListEv@Base 1.1.1
 _ZN10PackageKit6Daemon19networkStateChangedEv@Base 1.1.1
 _ZN10PackageKit6Daemon22transactionListChangedERK5QListI7QStringE@Base 1.1.1
 _ZN10PackageKit6Daemon5hintsEv@Base 1.1.1
 _ZN10PackageKit6Daemon5rolesEv@Base 1.1.1
 _ZN10PackageKit6Daemon6globalEv@Base 1.1.1
 _ZN10PackageKit6Daemon6groupsEv@Base 1.1.1
 _ZN10PackageKit6Daemon6lockedEv@Base 1.1.1
 _ZN10PackageKit6Daemon7changedEv@Base 1.1.1
 _ZN10PackageKit6Daemon7filtersEv@Base 1.1.1
 _ZN10PackageKit6Daemon7resolveERK5QListI7QStringE6QFlagsINS_11Transaction6FilterEE@Base 1.1.1
 _ZN10PackageKit6Daemon7resolveERK7QString6QFlagsINS_11Transaction6FilterEE@Base 1.1.1
 _ZN10PackageKit6Daemon8distroIDEv@Base 1.1.1
 _ZN10PackageKit6Daemon8getFilesERK5QListI7QStringE@Base 1.1.1
 _ZN10PackageKit6Daemon8getFilesERK7QString@Base 1.1.1
 _ZN10PackageKit6Daemon8m_globalE@Base 1.1.1
 _ZN10PackageKit6Daemon8setHintsERK5QListI7QStringE@Base 1.1.1
 _ZN10PackageKit6Daemon8setHintsERK7QString@Base 1.1.1
 _ZN10PackageKit6Daemon8setProxyERK7QStringS3_S3_S3_S3_S3_@Base 1.1.1
 _ZN10PackageKit6Daemon9dependsOnERK5QListI7QStringE6QFlagsINS_11Transaction6FilterEEb@Base 1.1.1
 _ZN10PackageKit6Daemon9dependsOnERK7QString6QFlagsINS_11Transaction6FilterEEb@Base 1.1.1
 _ZN10PackageKit6Daemon9isRunningEv@Base 1.1.1
 _ZN10PackageKit6Daemon9mimeTypesEv@Base 1.1.1
 _ZN10PackageKit6DaemonC1EP7QObject@Base 1.1.1
 _ZN10PackageKit6DaemonC2EP7QObject@Base 1.1.1
 _ZN10PackageKit6DaemonD0Ev@Base 1.1.1
 _ZN10PackageKit6DaemonD1Ev@Base 1.1.1
 _ZN10PackageKit6DaemonD2Ev@Base 1.1.1
 _ZN10PackageKit7DetailsC1ERK4QMapI7QString8QVariantE@Base 1.1.1
 _ZN10PackageKit7DetailsC1Ev@Base 1.1.1
 _ZN10PackageKit7DetailsC2ERK4QMapI7QString8QVariantE@Base 1.1.1
 _ZN10PackageKit7DetailsC2Ev@Base 1.1.1
 _ZN10PackageKit7Offline11getPreparedEv@Base 1.1.1
 _ZN10PackageKit7Offline11qt_metacallEN11QMetaObject4CallEiPPv@Base 1.1.1
 _ZN10PackageKit7Offline11qt_metacastEPKc@Base 1.1.1
 _ZN10PackageKit7Offline12clearResultsEv@Base 1.1.1
 _ZN10PackageKit7Offline14triggerUpgradeENS0_6ActionE@Base 1.1.1
 _ZN10PackageKit7Offline15preparedUpdatesERK5QListI7QStringE@Base 1.1.1
 _ZN10PackageKit7Offline16staticMetaObjectE@Base 1.1.1
 _ZN10PackageKit7Offline6cancelEv@Base 1.1.1
 _ZN10PackageKit7Offline7changedEv@Base 1.1.1
 _ZN10PackageKit7Offline7triggerENS0_6ActionE@Base 1.1.1
 _ZN10PackageKit7OfflineC1EP7QObject@Base 1.1.1
 _ZN10PackageKit7OfflineC2EP7QObject@Base 1.1.1
 _ZN10PackageKit7OfflineD0Ev@Base 1.1.1
 _ZN10PackageKit7OfflineD1Ev@Base 1.1.1
 _ZN10PackageKit7OfflineD2Ev@Base 1.1.1
 _ZN10PackageKit8BitfieldC1Ev@Base 1.1.1
 _ZN10PackageKit8BitfieldC1Ey@Base 1.1.1
 _ZN10PackageKit8BitfieldC2Ev@Base 1.1.1
 _ZN10PackageKit8BitfieldC2Ey@Base 1.1.1
 _ZN10PackageKit8BitfieldD1Ev@Base 1.1.1
 _ZN10PackageKit8BitfieldD2Ev@Base 1.1.1
 _ZN10PackageKit8BitfieldaNES0_@Base 1.1.1
 _ZN10PackageKit8BitfieldaNEy@Base 1.1.1
 _ZN10PackageKit8BitfieldaSERKS0_@Base 1.1.1
 _ZN10PackageKit8BitfieldeqERKS0_@Base 1.1.1
 _ZN10PackageKit8BitfieldoRES0_@Base 1.1.1
 _ZN10PackageKit8BitfieldoREy@Base 1.1.1
 _ZN13QMetaSequence12MetaSequenceI5QListI15QDBusObjectPathEE5valueE@Base 1.1.1
 _ZN13QMetaSequence12MetaSequenceI5QListIN10PackageKit8PkDetailEEE5valueE@Base 1.1.1
 _ZN13QMetaSequence12MetaSequenceI5QListIN10PackageKit9PkPackageEEE5valueE@Base 1.1.1
 _ZNK10PackageKit11Transaction10metaObjectEv@Base 1.1.1
 _ZNK10PackageKit11Transaction10percentageEv@Base 1.1.1
 _ZNK10PackageKit11Transaction10senderNameEv@Base 1.1.1
 _ZNK10PackageKit11Transaction11allowCancelEv@Base 1.1.1
 _ZNK10PackageKit11Transaction11elapsedTimeEv@Base 1.1.1
 _ZNK10PackageKit11Transaction11lastPackageEv@Base 1.1.1
 _ZNK10PackageKit11Transaction13remainingTimeEv@Base 1.1.1
 _ZNK10PackageKit11Transaction14isCallerActiveEv@Base 1.1.1
 _ZNK10PackageKit11Transaction16transactionFlagsEv@Base 1.1.1
 _ZNK10PackageKit11Transaction21downloadSizeRemainingEv@Base 1.1.1
 _ZNK10PackageKit11Transaction3tidEv@Base 1.1.1
 _ZNK10PackageKit11Transaction3uidEv@Base 1.1.1
 _ZNK10PackageKit11Transaction4dataEv@Base 1.1.1
 _ZNK10PackageKit11Transaction4roleEv@Base 1.1.1
 _ZNK10PackageKit11Transaction5speedEv@Base 1.1.1
 _ZNK10PackageKit11Transaction6statusEv@Base 1.1.1
 _ZNK10PackageKit11Transaction7cmdlineEv@Base 1.1.1
 _ZNK10PackageKit11Transaction8durationEv@Base 1.1.1
 _ZNK10PackageKit11Transaction8timespecEv@Base 1.1.1
 _ZNK10PackageKit11Transaction9succeededEv@Base 1.1.1
 _ZNK10PackageKit6Daemon10metaObjectEv@Base 1.1.1
 _ZNK10PackageKit6Daemon7offlineEv@Base 1.1.1
 _ZNK10PackageKit7Details11descriptionEv@Base 1.1.1
 _ZNK10PackageKit7Details3urlEv@Base 1.1.1
 _ZNK10PackageKit7Details4sizeEv@Base 1.1.1
 _ZNK10PackageKit7Details5groupEv@Base 1.1.1
 _ZNK10PackageKit7Details7licenseEv@Base 1.1.1
 _ZNK10PackageKit7Details7summaryEv@Base 1.1.1
 _ZNK10PackageKit7Details9packageIdEv@Base 1.1.1
 _ZNK10PackageKit7Offline10metaObjectEv@Base 1.1.1
 _ZNK10PackageKit7Offline13triggerActionEv@Base 1.1.1
 _ZNK10PackageKit7Offline14updatePreparedEv@Base 1.1.1
 _ZNK10PackageKit7Offline15preparedUpgradeEv@Base 1.1.1
 _ZNK10PackageKit7Offline15updateTriggeredEv@Base 1.1.1
 _ZNK10PackageKit7Offline15upgradePreparedEv@Base 1.1.1
 _ZNK10PackageKit7Offline16upgradeTriggeredEv@Base 1.1.1
 _ZNK10PackageKit8BitfieldanES0_@Base 1.1.1
 _ZNK10PackageKit8BitfieldanEy@Base 1.1.1
 _ZNK10PackageKit8BitfieldorES0_@Base 1.1.1
 _ZNK10PackageKit8BitfieldorEy@Base 1.1.1
 (optional=templinst)_ZNKSt8_Rb_treeI7QStringSt4pairIKS0_8QVariantESt10_Select1stIS4_ESt4lessIS0_ESaIS4_EE4findERS2_@Base 1.1.1
 _ZTIN10PackageKit11TransactionE@Base 1.1.1
 _ZTIN10PackageKit6DaemonE@Base 1.1.1
 _ZTIN10PackageKit7OfflineE@Base 1.1.1
 _ZTIZN9QMetaType17registerConverterI5QListI15QDBusObjectPathE9QIterableI13QMetaSequenceEN9QtPrivate33QSequentialIterableConvertFunctorIS3_EEEEbT1_EUlPKvPvE_@Base 1.1.1
 _ZTIZN9QMetaType17registerConverterI5QListIN10PackageKit8PkDetailEE9QIterableI13QMetaSequenceEN9QtPrivate33QSequentialIterableConvertFunctorIS4_EEEEbT1_EUlPKvPvE_@Base 1.1.1
 _ZTIZN9QMetaType17registerConverterI5QListIN10PackageKit9PkPackageEE9QIterableI13QMetaSequenceEN9QtPrivate33QSequentialIterableConvertFunctorIS4_EEEEbT1_EUlPKvPvE_@Base 1.1.1
 _ZTIZN9QMetaType19registerMutableViewI5QListI15QDBusObjectPathE9QIterableI13QMetaSequenceEN9QtPrivate37QSequentialIterableMutableViewFunctorIS3_EEEEbT1_EUlPvSB_E_@Base 1.1.1
 _ZTIZN9QMetaType19registerMutableViewI5QListIN10PackageKit8PkDetailEE9QIterableI13QMetaSequenceEN9QtPrivate37QSequentialIterableMutableViewFunctorIS4_EEEEbT1_EUlPvSC_E_@Base 1.1.1
 _ZTIZN9QMetaType19registerMutableViewI5QListIN10PackageKit9PkPackageEE9QIterableI13QMetaSequenceEN9QtPrivate37QSequentialIterableMutableViewFunctorIS4_EEEEbT1_EUlPvSC_E_@Base 1.1.1
 _ZTSN10PackageKit11TransactionE@Base 1.1.1
 _ZTSN10PackageKit6DaemonE@Base 1.1.1
 _ZTSN10PackageKit7OfflineE@Base 1.1.1
 _ZTSZN9QMetaType17registerConverterI5QListI15QDBusObjectPathE9QIterableI13QMetaSequenceEN9QtPrivate33QSequentialIterableConvertFunctorIS3_EEEEbT1_EUlPKvPvE_@Base 1.1.1
 _ZTSZN9QMetaType17registerConverterI5QListIN10PackageKit8PkDetailEE9QIterableI13QMetaSequenceEN9QtPrivate33QSequentialIterableConvertFunctorIS4_EEEEbT1_EUlPKvPvE_@Base 1.1.1
 _ZTSZN9QMetaType17registerConverterI5QListIN10PackageKit9PkPackageEE9QIterableI13QMetaSequenceEN9QtPrivate33QSequentialIterableConvertFunctorIS4_EEEEbT1_EUlPKvPvE_@Base 1.1.1
 _ZTSZN9QMetaType19registerMutableViewI5QListI15QDBusObjectPathE9QIterableI13QMetaSequenceEN9QtPrivate37QSequentialIterableMutableViewFunctorIS3_EEEEbT1_EUlPvSB_E_@Base 1.1.1
 _ZTSZN9QMetaType19registerMutableViewI5QListIN10PackageKit8PkDetailEE9QIterableI13QMetaSequenceEN9QtPrivate37QSequentialIterableMutableViewFunctorIS4_EEEEbT1_EUlPvSC_E_@Base 1.1.1
 _ZTSZN9QMetaType19registerMutableViewI5QListIN10PackageKit9PkPackageEE9QIterableI13QMetaSequenceEN9QtPrivate37QSequentialIterableMutableViewFunctorIS4_EEEEbT1_EUlPvSC_E_@Base 1.1.1
 _ZTVN10PackageKit11TransactionE@Base 1.1.1
 _ZTVN10PackageKit6DaemonE@Base 1.1.1
 _ZTVN10PackageKit7OfflineE@Base 1.1.1
 (optional=templinst)_ZZN9QMetaType21registerConverterImplI5QListI15QDBusObjectPathE9QIterableI13QMetaSequenceEEEbSt8functionIFbPKvPvEES_S_E10unregister@Base 1.1.1
 (optional=templinst)_ZZN9QMetaType21registerConverterImplI5QListIN10PackageKit8PkDetailEE9QIterableI13QMetaSequenceEEEbSt8functionIFbPKvPvEES_S_E10unregister@Base 1.1.1
 (optional=templinst)_ZZN9QMetaType21registerConverterImplI5QListIN10PackageKit9PkPackageEE9QIterableI13QMetaSequenceEEEbSt8functionIFbPKvPvEES_S_E10unregister@Base 1.1.1
 (optional=templinst)_ZZN9QMetaType23registerMutableViewImplI5QListI15QDBusObjectPathE9QIterableI13QMetaSequenceEEEbSt8functionIFbPvS8_EES_S_E10unregister@Base 1.1.1
 (optional=templinst)_ZZN9QMetaType23registerMutableViewImplI5QListIN10PackageKit8PkDetailEE9QIterableI13QMetaSequenceEEEbSt8functionIFbPvS9_EES_S_E10unregister@Base 1.1.1
 (optional=templinst)_ZZN9QMetaType23registerMutableViewImplI5QListIN10PackageKit9PkPackageEE9QIterableI13QMetaSequenceEEEbSt8functionIFbPvS9_EES_S_E10unregister@Base 1.1.1
